target datalayout = "e-m:e-p270:32:32-p271:32:32-p272:64:64-i64:64-i128:128-f80:128-n8:16:32:64-S128"
target triple = "x86_64-pc-linux-gnu"

%struct._phpdbg_param = type { i32, i64, i64, %struct.anon, %struct.anon.0, ptr, i64, ptr, ptr }
%struct.anon = type { ptr, i64 }
%struct.anon.0 = type { ptr, ptr }

; Function Attrs: nounwind uwtable
define void @phpdbg_stack_free(ptr noundef %0) #0 {
  %2 = alloca ptr, align 8
  %3 = alloca ptr, align 8
  %4 = alloca ptr, align 8
  store ptr %0, ptr %2, align 8
  %5 = load ptr, ptr %2, align 8
  %6 = icmp ne ptr %5, null
  call void @llvm.assume(i1 %6)
  %7 = load ptr, ptr %2, align 8
  %8 = getelementptr inbounds %struct._phpdbg_param, ptr %7, i32 0, i32 7
  %9 = load ptr, ptr %8, align 8
  %10 = icmp ne ptr %9, null
  br i1 %10, label %11, label %88

11:                                               ; preds = %1
  %12 = load ptr, ptr %2, align 8
  %13 = getelementptr inbounds %struct._phpdbg_param, ptr %12, i32 0, i32 7
  %14 = load ptr, ptr %13, align 8
  store ptr %14, ptr %3, align 8
  br label %15

15:                                               ; preds = %84, %11
  %16 = load ptr, ptr %3, align 8
  %17 = icmp ne ptr %16, null
  br i1 %17, label %18, label %85

18:                                               ; preds = %15
  store ptr null, ptr %4, align 8
  %19 = load ptr, ptr %3, align 8
  %20 = getelementptr inbounds %struct._phpdbg_param, ptr %19, i32 0, i32 7
  %21 = load ptr, ptr %20, align 8
  %22 = icmp ne ptr %21, null
  br i1 %22, label %23, label %27

23:                                               ; preds = %18
  %24 = load ptr, ptr %3, align 8
  %25 = getelementptr inbounds %struct._phpdbg_param, ptr %24, i32 0, i32 7
  %26 = load ptr, ptr %25, align 8
  store ptr %26, ptr %4, align 8
  br label %27

27:                                               ; preds = %23, %18
  %28 = load ptr, ptr %3, align 8
  %29 = getelementptr inbounds %struct._phpdbg_param, ptr %28, i32 0, i32 0
  %30 = load i32, ptr %29, align 8
  switch i32 %30, label %76 [
    i32 8, label %31
    i32 4, label %31
    i32 7, label %54
    i32 5, label %54
    i32 13, label %54
    i32 10, label %54
    i32 11, label %54
    i32 12, label %54
    i32 15, label %54
    i32 3, label %64
    i32 2, label %64
  ]

31:                                               ; preds = %27, %27
  %32 = load ptr, ptr %3, align 8
  %33 = getelementptr inbounds %struct._phpdbg_param, ptr %32, i32 0, i32 4
  %34 = getelementptr inbounds %struct.anon.0, ptr %33, i32 0, i32 0
  %35 = load ptr, ptr %34, align 8
  %36 = icmp ne ptr %35, null
  br i1 %36, label %37, label %42

37:                                               ; preds = %31
  %38 = load ptr, ptr %3, align 8
  %39 = getelementptr inbounds %struct._phpdbg_param, ptr %38, i32 0, i32 4
  %40 = getelementptr inbounds %struct.anon.0, ptr %39, i32 0, i32 0
  %41 = load ptr, ptr %40, align 8
  call void @_efree(ptr noundef %41)
  br label %42

42:                                               ; preds = %37, %31
  %43 = load ptr, ptr %3, align 8
  %44 = getelementptr inbounds %struct._phpdbg_param, ptr %43, i32 0, i32 4
  %45 = getelementptr inbounds %struct.anon.0, ptr %44, i32 0, i32 1
  %46 = load ptr, ptr %45, align 8
  %47 = icmp ne ptr %46, null
  br i1 %47, label %48, label %53

48:                                               ; preds = %42
  %49 = load ptr, ptr %3, align 8
  %50 = getelementptr inbounds %struct._phpdbg_param, ptr %49, i32 0, i32 4
  %51 = getelementptr inbounds %struct.anon.0, ptr %50, i32 0, i32 1
  %52 = load ptr, ptr %51, align 8
  call void @_efree(ptr noundef %52)
  br label %53

53:                                               ; preds = %48, %42
  br label %77

54:                                               ; preds = %27, %27, %27, %27, %27, %27, %27
  %55 = load ptr, ptr %3, align 8
  %56 = getelementptr inbounds %struct._phpdbg_param, ptr %55, i32 0, i32 5
  %57 = load ptr, ptr %56, align 8
  %58 = icmp ne ptr %57, null
  br i1 %58, label %59, label %63

59:                                               ; preds = %54
  %60 = load ptr, ptr %3, align 8
  %61 = getelementptr inbounds %struct._phpdbg_param, ptr %60, i32 0, i32 5
  %62 = load ptr, ptr %61, align 8
  call void @_efree(ptr noundef %62)
  br label %63

63:                                               ; preds = %59, %54
  br label %77

64:                                               ; preds = %27, %27
  %65 = load ptr, ptr %3, align 8
  %66 = getelementptr inbounds %struct._phpdbg_param, ptr %65, i32 0, i32 3
  %67 = getelementptr inbounds %struct.anon, ptr %66, i32 0, i32 0
  %68 = load ptr, ptr %67, align 8
  %69 = icmp ne ptr %68, null
  br i1 %69, label %70, label %75

70:                                               ; preds = %64
  %71 = load ptr, ptr %3, align 8
  %72 = getelementptr inbounds %struct._phpdbg_param, ptr %71, i32 0, i32 3
  %73 = getelementptr inbounds %struct.anon, ptr %72, i32 0, i32 0
  %74 = load ptr, ptr %73, align 8
  call void @_efree(ptr noundef %74)
  br label %75

75:                                               ; preds = %70, %64
  br label %77

76:                                               ; preds = %27
  br label %77

77:                                               ; preds = %76, %75, %63, %53
  %78 = load ptr, ptr %3, align 8
  call void @free(ptr noundef %78) #12
  store ptr null, ptr %3, align 8
  %79 = load ptr, ptr %4, align 8
  %80 = icmp ne ptr %79, null
  br i1 %80, label %81, label %83

81:                                               ; preds = %77
  %82 = load ptr, ptr %4, align 8
  store ptr %82, ptr %3, align 8
  br label %84

83:                                               ; preds = %77
  br label %85

84:                                               ; preds = %81
  br label %15

85:                                               ; preds = %83, %15
  %86 = load ptr, ptr %2, align 8
  %87 = getelementptr inbounds %struct._phpdbg_param, ptr %86, i32 0, i32 7
  store ptr null, ptr %87, align 8
  br label %88

88:                                               ; preds = %85, %1
  ret void
}