; Function Attrs: nounwind uwtable
define void @phpdbg_stack_free(ptr noundef %0) local_unnamed_addr #1 {
  %2 = icmp ne ptr %0, null
  tail call void @llvm.assume(i1 %2)
  %3 = getelementptr inbounds i8, ptr %0, i64 72
  %4 = load ptr, ptr %3, align 8
  %.not = icmp eq ptr %4, null
  br i1 %.not, label %23, label %.preheader

.preheader:                                       ; preds = %1, %21
  %.019 = phi ptr [ %6, %21 ], [ %4, %1 ]
  %5 = getelementptr inbounds i8, ptr %.019, i64 72
  %6 = load ptr, ptr %5, align 8
  %.not26 = icmp eq ptr %6, null
  %7 = load i32, ptr %.019, align 8
  switch i32 %7, label %21 [
    i32 8, label %8
    i32 4, label %8
    i32 7, label %15
    i32 5, label %15
    i32 13, label %15
    i32 10, label %15
    i32 11, label %15
    i32 12, label %15
    i32 15, label %15
    i32 3, label %18
    i32 2, label %18
  ]

8:                                                ; preds = %.preheader, %.preheader
  %9 = getelementptr inbounds i8, ptr %.019, i64 40
  %10 = load ptr, ptr %9, align 8
  %.not29 = icmp eq ptr %10, null
  br i1 %.not29, label %12, label %11

11:                                               ; preds = %8
  tail call void @_efree(ptr noundef nonnull %10) #22
  br label %12

12:                                               ; preds = %11, %8
  %13 = getelementptr inbounds i8, ptr %.019, i64 48
  %14 = load ptr, ptr %13, align 8
  %.not30 = icmp eq ptr %14, null
  br i1 %.not30, label %21, label %.sink.split

15:                                               ; preds = %.preheader, %.preheader, %.preheader, %.preheader, %.preheader, %.preheader, %.preheader
  %16 = getelementptr inbounds i8, ptr %.019, i64 56
  %17 = load ptr, ptr %16, align 8
  %.not28 = icmp eq ptr %17, null
  br i1 %.not28, label %21, label %.sink.split

18:                                               ; preds = %.preheader, %.preheader
  %19 = getelementptr inbounds i8, ptr %.019, i64 24
  %20 = load ptr, ptr %19, align 8
  %.not27 = icmp eq ptr %20, null
  br i1 %.not27, label %21, label %.sink.split

.sink.split:                                      ; preds = %18, %15, %12
  %.sink = phi ptr [ %14, %12 ], [ %17, %15 ], [ %20, %18 ]
  tail call void @_efree(ptr noundef nonnull %.sink) #22
  br label %21

21:                                               ; preds = %.sink.split, %.preheader, %18, %15, %12
  tail call void @free(ptr noundef nonnull %.019) #22
  br i1 %.not26, label %22, label %.preheader

22:                                               ; preds = %21
  store ptr null, ptr %3, align 8
  br label %23

23:                                               ; preds = %22, %1
  ret void
}